; Function Attrs: nounwind uwtable
define hidden void @zif_session_decode(ptr nocapture noundef readonly %0, ptr nocapture noundef writeonly %1) #0 {
  %3 = alloca ptr, align 8
  store ptr null, ptr %3, align 8
  %4 = getelementptr inbounds i8, ptr %0, i64 44
  %5 = load i32, ptr %4, align 4
  %6 = call i32 (i32, ptr, ...) @zend_parse_parameters(i32 noundef %5, ptr noundef nonnull @.str.87, ptr noundef nonnull %3) #23
  %7 = icmp eq i32 %6, -1
  br i1 %7, label %8, label %11

8:                                                ; preds = %2
  %9 = load ptr, ptr getelementptr inbounds (%struct._zend_executor_globals, ptr @executor_globals, i64 0, i32 50), align 8
  %10 = icmp ne ptr %9, null
  call void @llvm.assume(i1 %10)
  br label %22

11:                                               ; preds = %2
  %12 = load i32, ptr getelementptr inbounds (%struct._php_ps_globals, ptr @ps_globals, i64 0, i32 14), align 8
  %.not = icmp eq i32 %12, 2
  br i1 %.not, label %15, label %13

13:                                               ; preds = %11
  call void (ptr, i32, ptr, ...) @php_error_docref(ptr noundef null, i32 noundef 2, ptr noundef nonnull @.str.88) #23
  %14 = getelementptr inbounds i8, ptr %1, i64 8
  store i32 2, ptr %14, align 8
  br label %22

15:                                               ; preds = %11
  %16 = load ptr, ptr %3, align 8
  %17 = call fastcc i32 @php_session_decode(ptr noundef %16), !range !4
  %18 = icmp eq i32 %17, -1
  %19 = getelementptr inbounds i8, ptr %1, i64 8
  br i1 %18, label %20, label %21

20:                                               ; preds = %15
  store i32 2, ptr %19, align 8
  br label %22

21:                                               ; preds = %15
  store i32 3, ptr %19, align 8
  br label %22

22:                                               ; preds = %21, %20, %13, %8
  ret void
}